; Function Attrs: mustprogress uwtable
define internal void @_ZN12_GLOBAL__N_115SmtPrintVisitor3bufEN5Yosys10Functional4NodeES3_(ptr dead_on_unwind noalias writable sret(%"class.Yosys::SExpr") align 8 %0, ptr noundef nonnull align 8 dereferenceable(56) %1, ptr readnone captures(none) %2, i32 %3, ptr %4, i32 %5) unnamed_addr #5 align 2 {
  %7 = alloca %"class.Yosys::Functional::Node", align 8
  call void @llvm.lifetime.start.p0(i64 16, ptr nonnull %7)
  store ptr %4, ptr %7, align 8, !noalias !497
  %8 = getelementptr inbounds nuw i8, ptr %7, i64 8
  store i32 %5, ptr %8, align 8, !noalias !497
  %9 = getelementptr inbounds nuw i8, ptr %1, i64 24
  %10 = load ptr, ptr %9, align 8, !tbaa !196, !noalias !497
  %.not.i.i = icmp eq ptr %10, null
  br i1 %.not.i.i, label %11, label %_ZNKSt8functionIFN5Yosys5SExprENS0_10Functional4NodeEEEclES3_.exit

11:                                               ; preds = %6
  tail call void @_ZSt25__throw_bad_function_callv() #28, !noalias !497
  unreachable

_ZNKSt8functionIFN5Yosys5SExprENS0_10Functional4NodeEEEclES3_.exit: ; preds = %6
  %12 = getelementptr inbounds nuw i8, ptr %1, i64 8
  %13 = getelementptr inbounds nuw i8, ptr %1, i64 32
  %14 = load ptr, ptr %13, align 8, !tbaa !198, !noalias !497
  call void %14(ptr dead_on_unwind writable sret(%"class.Yosys::SExpr") align 8 %0, ptr noundef nonnull align 8 dereferenceable(32) %12, ptr noundef nonnull align 8 dereferenceable(16) %7)
  call void @llvm.lifetime.end.p0(i64 16, ptr nonnull %7)
  ret void
}